target datalayout = "e-m:e-p270:32:32-p271:32:32-p272:64:64-i64:64-i128:128-f80:128-n8:16:32:64-S128"
target triple = "x86_64-pc-linux-gnu"

%struct.mbedtls_psa_hash_operation_t = type { i32, %union.anon }
%union.anon = type { %struct.mbedtls_sha512_context }
%struct.mbedtls_sha512_context = type { [2 x i64], [8 x i64], [128 x i8], i32 }

; Function Attrs: nounwind uwtable
define hidden i32 @mbedtls_psa_hash_update(ptr noundef %0, ptr noundef %1, i64 noundef %2) #0 {
  %4 = alloca i32, align 4
  %5 = alloca ptr, align 8
  %6 = alloca ptr, align 8
  %7 = alloca i64, align 8
  %8 = alloca i32, align 4
  %9 = alloca i32, align 4
  store ptr %0, ptr %5, align 8, !tbaa !3
  store ptr %1, ptr %6, align 8, !tbaa !11
  store i64 %2, ptr %7, align 8, !tbaa !13
  call void @llvm.lifetime.start.p0(i64 4, ptr %8) #4
  store i32 -110, ptr %8, align 4, !tbaa !10
  %10 = load ptr, ptr %5, align 8, !tbaa !3
  %11 = getelementptr inbounds nuw %struct.mbedtls_psa_hash_operation_t, ptr %10, i32 0, i32 0
  %12 = load i32, ptr %11, align 8, !tbaa !7
  switch i32 %12, label %61 [
    i32 33554435, label %13
    i32 33554436, label %19
    i32 33554437, label %25
    i32 33554440, label %31
    i32 33554441, label %37
    i32 33554442, label %43
    i32 33554443, label %49
    i32 33554448, label %55
    i32 33554449, label %55
    i32 33554450, label %55
    i32 33554451, label %55
  ]

13:                                               ; preds = %3
  %14 = load ptr, ptr %5, align 8, !tbaa !3
  %15 = getelementptr inbounds nuw %struct.mbedtls_psa_hash_operation_t, ptr %14, i32 0, i32 1
  %16 = load ptr, ptr %6, align 8, !tbaa !11
  %17 = load i64, ptr %7, align 8, !tbaa !13
  %18 = call i32 @mbedtls_md5_update(ptr noundef %15, ptr noundef %16, i64 noundef %17)
  store i32 %18, ptr %8, align 4, !tbaa !10
  br label %62

19:                                               ; preds = %3
  %20 = load ptr, ptr %5, align 8, !tbaa !3
  %21 = getelementptr inbounds nuw %struct.mbedtls_psa_hash_operation_t, ptr %20, i32 0, i32 1
  %22 = load ptr, ptr %6, align 8, !tbaa !11
  %23 = load i64, ptr %7, align 8, !tbaa !13
  %24 = call i32 @mbedtls_ripemd160_update(ptr noundef %21, ptr noundef %22, i64 noundef %23)
  store i32 %24, ptr %8, align 4, !tbaa !10
  br label %62

25:                                               ; preds = %3
  %26 = load ptr, ptr %5, align 8, !tbaa !3
  %27 = getelementptr inbounds nuw %struct.mbedtls_psa_hash_operation_t, ptr %26, i32 0, i32 1
  %28 = load ptr, ptr %6, align 8, !tbaa !11
  %29 = load i64, ptr %7, align 8, !tbaa !13
  %30 = call i32 @mbedtls_sha1_update(ptr noundef %27, ptr noundef %28, i64 noundef %29)
  store i32 %30, ptr %8, align 4, !tbaa !10
  br label %62

31:                                               ; preds = %3
  %32 = load ptr, ptr %5, align 8, !tbaa !3
  %33 = getelementptr inbounds nuw %struct.mbedtls_psa_hash_operation_t, ptr %32, i32 0, i32 1
  %34 = load ptr, ptr %6, align 8, !tbaa !11
  %35 = load i64, ptr %7, align 8, !tbaa !13
  %36 = call i32 @mbedtls_sha256_update(ptr noundef %33, ptr noundef %34, i64 noundef %35)
  store i32 %36, ptr %8, align 4, !tbaa !10
  br label %62

37:                                               ; preds = %3
  %38 = load ptr, ptr %5, align 8, !tbaa !3
  %39 = getelementptr inbounds nuw %struct.mbedtls_psa_hash_operation_t, ptr %38, i32 0, i32 1
  %40 = load ptr, ptr %6, align 8, !tbaa !11
  %41 = load i64, ptr %7, align 8, !tbaa !13
  %42 = call i32 @mbedtls_sha256_update(ptr noundef %39, ptr noundef %40, i64 noundef %41)
  store i32 %42, ptr %8, align 4, !tbaa !10
  br label %62

43:                                               ; preds = %3
  %44 = load ptr, ptr %5, align 8, !tbaa !3
  %45 = getelementptr inbounds nuw %struct.mbedtls_psa_hash_operation_t, ptr %44, i32 0, i32 1
  %46 = load ptr, ptr %6, align 8, !tbaa !11
  %47 = load i64, ptr %7, align 8, !tbaa !13
  %48 = call i32 @mbedtls_sha512_update(ptr noundef %45, ptr noundef %46, i64 noundef %47)
  store i32 %48, ptr %8, align 4, !tbaa !10
  br label %62

49:                                               ; preds = %3
  %50 = load ptr, ptr %5, align 8, !tbaa !3
  %51 = getelementptr inbounds nuw %struct.mbedtls_psa_hash_operation_t, ptr %50, i32 0, i32 1
  %52 = load ptr, ptr %6, align 8, !tbaa !11
  %53 = load i64, ptr %7, align 8, !tbaa !13
  %54 = call i32 @mbedtls_sha512_update(ptr noundef %51, ptr noundef %52, i64 noundef %53)
  store i32 %54, ptr %8, align 4, !tbaa !10
  br label %62

55:                                               ; preds = %3, %3, %3, %3
  %56 = load ptr, ptr %5, align 8, !tbaa !3
  %57 = getelementptr inbounds nuw %struct.mbedtls_psa_hash_operation_t, ptr %56, i32 0, i32 1
  %58 = load ptr, ptr %6, align 8, !tbaa !11
  %59 = load i64, ptr %7, align 8, !tbaa !13
  %60 = call i32 @mbedtls_sha3_update(ptr noundef %57, ptr noundef %58, i64 noundef %59)
  store i32 %60, ptr %8, align 4, !tbaa !10
  br label %62

61:                                               ; preds = %3
  store i32 -137, ptr %4, align 4
  store i32 1, ptr %9, align 4
  br label %65

62:                                               ; preds = %55, %49, %43, %37, %31, %25, %19, %13
  %63 = load i32, ptr %8, align 4, !tbaa !10
  %64 = call i32 @mbedtls_to_psa_error(i32 noundef %63)
  store i32 %64, ptr %4, align 4
  store i32 1, ptr %9, align 4
  br label %65

65:                                               ; preds = %62, %61
  call void @llvm.lifetime.end.p0(i64 4, ptr %8) #4
  %66 = load i32, ptr %4, align 4
  ret i32 %66
}