; Function Attrs: nounwind uwtable
define hidden i32 @mbedtls_psa_hash_update(ptr noundef %0, ptr noundef %1, i64 noundef %2) local_unnamed_addr #0 {
  %4 = load i32, ptr %0, align 8, !tbaa !3
  switch i32 %4, label %31 [
    i32 33554435, label %5
    i32 33554436, label %8
    i32 33554437, label %11
    i32 33554440, label %14
    i32 33554441, label %17
    i32 33554442, label %20
    i32 33554443, label %23
    i32 33554448, label %26
    i32 33554449, label %26
    i32 33554450, label %26
    i32 33554451, label %26
  ]

5:                                                ; preds = %3
  %6 = getelementptr inbounds nuw i8, ptr %0, i64 8
  %7 = tail call i32 @mbedtls_md5_update(ptr noundef nonnull %6, ptr noundef %1, i64 noundef %2) #4
  br label %29

8:                                                ; preds = %3
  %9 = getelementptr inbounds nuw i8, ptr %0, i64 8
  %10 = tail call i32 @mbedtls_ripemd160_update(ptr noundef nonnull %9, ptr noundef %1, i64 noundef %2) #4
  br label %29

11:                                               ; preds = %3
  %12 = getelementptr inbounds nuw i8, ptr %0, i64 8
  %13 = tail call i32 @mbedtls_sha1_update(ptr noundef nonnull %12, ptr noundef %1, i64 noundef %2) #4
  br label %29

14:                                               ; preds = %3
  %15 = getelementptr inbounds nuw i8, ptr %0, i64 8
  %16 = tail call i32 @mbedtls_sha256_update(ptr noundef nonnull %15, ptr noundef %1, i64 noundef %2) #4
  br label %29

17:                                               ; preds = %3
  %18 = getelementptr inbounds nuw i8, ptr %0, i64 8
  %19 = tail call i32 @mbedtls_sha256_update(ptr noundef nonnull %18, ptr noundef %1, i64 noundef %2) #4
  br label %29

20:                                               ; preds = %3
  %21 = getelementptr inbounds nuw i8, ptr %0, i64 8
  %22 = tail call i32 @mbedtls_sha512_update(ptr noundef nonnull %21, ptr noundef %1, i64 noundef %2) #4
  br label %29

23:                                               ; preds = %3
  %24 = getelementptr inbounds nuw i8, ptr %0, i64 8
  %25 = tail call i32 @mbedtls_sha512_update(ptr noundef nonnull %24, ptr noundef %1, i64 noundef %2) #4
  br label %29

26:                                               ; preds = %3, %3, %3, %3
  %27 = getelementptr inbounds nuw i8, ptr %0, i64 8
  %28 = tail call i32 @mbedtls_sha3_update(ptr noundef nonnull %27, ptr noundef %1, i64 noundef %2) #4
  br label %29

29:                                               ; preds = %26, %23, %20, %17, %14, %11, %8, %5
  %.0 = phi i32 [ %28, %26 ], [ %25, %23 ], [ %22, %20 ], [ %19, %17 ], [ %16, %14 ], [ %13, %11 ], [ %10, %8 ], [ %7, %5 ]
  %30 = tail call i32 @mbedtls_to_psa_error(i32 noundef %.0) #4
  br label %31

31:                                               ; preds = %3, %29
  %.026 = phi i32 [ %30, %29 ], [ -137, %3 ]
  ret i32 %.026
}